   1              		.cpu cortex-m3
   2              		.eabi_attribute 20, 1
   3              		.eabi_attribute 21, 1
   4              		.eabi_attribute 23, 3
   5              		.eabi_attribute 24, 1
   6              		.eabi_attribute 25, 1
   7              		.eabi_attribute 26, 1
   8              		.eabi_attribute 30, 1
   9              		.eabi_attribute 34, 1
  10              		.eabi_attribute 18, 4
  11              		.file	"NVICprogram.c"
  12              		.text
  13              	.Ltext0:
  14              		.cfi_sections	.debug_frame
  15              		.section	.text.MNVIC_VoidInit,"ax",%progbits
  16              		.align	1
  17              		.global	MNVIC_VoidInit
  18              		.syntax unified
  19              		.thumb
  20              		.thumb_func
  21              		.fpu softvfp
  23              	MNVIC_VoidInit:
  24              	.LFB0:
  25              		.file 1 "../src/NVICprogram.c"
   1:../src/NVICprogram.c **** /***************************/
   2:../src/NVICprogram.c **** /*Author : ahmed alaa	*/
   3:../src/NVICprogram.c **** /*date : 19/8/2020 		*/
   4:../src/NVICprogram.c **** /*version : v02			*/
   5:../src/NVICprogram.c **** /***************************/
   6:../src/NVICprogram.c **** 
   7:../src/NVICprogram.c **** #include "STD_TYPES.h"
   8:../src/NVICprogram.c **** #include "BIT_MATH.h"
   9:../src/NVICprogram.c **** 
  10:../src/NVICprogram.c **** #include "NVIC_interface.h"
  11:../src/NVICprogram.c **** #include "NVIC_private.h"
  12:../src/NVICprogram.c **** #include "NVIC_config.h"
  13:../src/NVICprogram.c **** 
  14:../src/NVICprogram.c **** void MNVIC_VoidInit()
  15:../src/NVICprogram.c **** {
  26              		.loc 1 15 0
  27              		.cfi_startproc
  28              		@ args = 0, pretend = 0, frame = 0
  29              		@ frame_needed = 0, uses_anonymous_args = 0
  30              		@ link register save eliminated.
  16:../src/NVICprogram.c **** 	#define SCB_AIRCR		*((u32*)0xE000ED0C)
  17:../src/NVICprogram.c **** 	SCB_AIRCR = MNVIC_GROUP_SUB_DISTRIBUTION;
  31              		.loc 1 17 0
  32 0000 014B     		ldr	r3, .L2
  33 0002 024A     		ldr	r2, .L2+4
  34 0004 1A60     		str	r2, [r3]
  18:../src/NVICprogram.c **** }
  35              		.loc 1 18 0
  36 0006 7047     		bx	lr
  37              	.L3:
  38              		.align	2
  39              	.L2:
  40 0008 0CED00E0 		.word	-536810228
  41 000c 0005FA05 		.word	100271360
  42              		.cfi_endproc
  43              	.LFE0:
  45              		.section	.text.MNVIC_VoidSetPriority,"ax",%progbits
  46              		.align	1
  47              		.global	MNVIC_VoidSetPriority
  48              		.syntax unified
  49              		.thumb
  50              		.thumb_func
  51              		.fpu softvfp
  53              	MNVIC_VoidSetPriority:
  54              	.LFB1:
  19:../src/NVICprogram.c **** 
  20:../src/NVICprogram.c **** void MNVIC_VoidSetPriority(u8 Copy_u8PeripheralIdx ,u8 Copy_u8Priority)
  21:../src/NVICprogram.c **** {
  55              		.loc 1 21 0
  56              		.cfi_startproc
  57              		@ args = 0, pretend = 0, frame = 0
  58              		@ frame_needed = 0, uses_anonymous_args = 0
  59              		@ link register save eliminated.
  60              	.LVL0:
  22:../src/NVICprogram.c **** 	if(Copy_u8PeripheralIdx<60)
  61              		.loc 1 22 0
  62 0000 3B28     		cmp	r0, #59
  63 0002 04D8     		bhi	.L4
  23:../src/NVICprogram.c **** 	{
  24:../src/NVICprogram.c **** 		NVIC_IPR[Copy_u8PeripheralIdx] = Copy_u8Priority;
  64              		.loc 1 24 0
  65 0004 00F16040 		add	r0, r0, #-536870912
  66              	.LVL1:
  67 0008 00F56440 		add	r0, r0, #58368
  68 000c 0170     		strb	r1, [r0]
  69              	.L4:
  25:../src/NVICprogram.c **** 	}
  26:../src/NVICprogram.c **** 
  27:../src/NVICprogram.c **** 	else
  28:../src/NVICprogram.c **** 	{
  29:../src/NVICprogram.c **** 		/*Reprot Error*/
  30:../src/NVICprogram.c **** 	}
  31:../src/NVICprogram.c **** }
  70              		.loc 1 31 0
  71 000e 7047     		bx	lr
  72              		.cfi_endproc
  73              	.LFE1:
  75              		.section	.text.MNVIC_VoidEnableInterrupt,"ax",%progbits
  76              		.align	1
  77              		.global	MNVIC_VoidEnableInterrupt
  78              		.syntax unified
  79              		.thumb
  80              		.thumb_func
  81              		.fpu softvfp
  83              	MNVIC_VoidEnableInterrupt:
  84              	.LFB2:
  32:../src/NVICprogram.c **** 
  33:../src/NVICprogram.c **** void MNVIC_VoidEnableInterrupt(u8 Copy_u8IntNumber)
  34:../src/NVICprogram.c **** {
  85              		.loc 1 34 0
  86              		.cfi_startproc
  87              		@ args = 0, pretend = 0, frame = 0
  88              		@ frame_needed = 0, uses_anonymous_args = 0
  89              		@ link register save eliminated.
  90              	.LVL2:
  35:../src/NVICprogram.c **** 	if(Copy_u8IntNumber<=31)
  91              		.loc 1 35 0
  92 0000 1F28     		cmp	r0, #31
  93 0002 09D9     		bls	.L9
  36:../src/NVICprogram.c **** 	{
  37:../src/NVICprogram.c **** 		NVIC_ISER0 = (1 << Copy_u8IntNumber ); // faster than SET_BIT as it use OR
  38:../src/NVICprogram.c **** 	}
  39:../src/NVICprogram.c **** 	
  40:../src/NVICprogram.c **** 	else if(Copy_u8IntNumber<=59)
  94              		.loc 1 40 0
  95 0004 3B28     		cmp	r0, #59
  96 0006 06D8     		bhi	.L6
  41:../src/NVICprogram.c **** 	{
  42:../src/NVICprogram.c **** 		Copy_u8IntNumber -= 32;
  97              		.loc 1 42 0
  98 0008 2038     		subs	r0, r0, #32
  99              	.LVL3:
 100 000a C0B2     		uxtb	r0, r0
 101              	.LVL4:
  43:../src/NVICprogram.c **** 		NVIC_ISER1 = (1 << Copy_u8IntNumber ); // faster than SET_BIT as it use OR
 102              		.loc 1 43 0
 103 000c 0123     		movs	r3, #1
 104 000e 03FA00F0 		lsl	r0, r3, r0
 105              	.LVL5:
 106 0012 044B     		ldr	r3, .L10
 107 0014 1860     		str	r0, [r3]
 108              	.L6:
  44:../src/NVICprogram.c **** 	}
  45:../src/NVICprogram.c **** 	
  46:../src/NVICprogram.c **** 	else
  47:../src/NVICprogram.c **** 	{
  48:../src/NVICprogram.c **** 		/*Return error*/
  49:../src/NVICprogram.c **** 	}
  50:../src/NVICprogram.c **** }
 109              		.loc 1 50 0
 110 0016 7047     		bx	lr
 111              	.LVL6:
 112              	.L9:
  37:../src/NVICprogram.c **** 	}
 113              		.loc 1 37 0
 114 0018 0123     		movs	r3, #1
 115 001a 03FA00F0 		lsl	r0, r3, r0
 116              	.LVL7:
 117 001e 024B     		ldr	r3, .L10+4
 118 0020 1860     		str	r0, [r3]
 119 0022 7047     		bx	lr
 120              	.L11:
 121              		.align	2
 122              	.L10:
 123 0024 04E100E0 		.word	-536813308
 124 0028 00E100E0 		.word	-536813312
 125              		.cfi_endproc
 126              	.LFE2:
 128              		.section	.text.MNVIC_VoidDisableInterrupt,"ax",%progbits
 129              		.align	1
 130              		.global	MNVIC_VoidDisableInterrupt
 131              		.syntax unified
 132              		.thumb
 133              		.thumb_func
 134              		.fpu softvfp
 136              	MNVIC_VoidDisableInterrupt:
 137              	.LFB3:
  51:../src/NVICprogram.c **** 
  52:../src/NVICprogram.c **** 
  53:../src/NVICprogram.c **** void MNVIC_VoidDisableInterrupt(u8 Copy_u8IntNumber)
  54:../src/NVICprogram.c **** {
 138              		.loc 1 54 0
 139              		.cfi_startproc
 140              		@ args = 0, pretend = 0, frame = 0
 141              		@ frame_needed = 0, uses_anonymous_args = 0
 142              		@ link register save eliminated.
 143              	.LVL8:
  55:../src/NVICprogram.c **** 	if(Copy_u8IntNumber<=31)
 144              		.loc 1 55 0
 145 0000 1F28     		cmp	r0, #31
 146 0002 09D9     		bls	.L15
  56:../src/NVICprogram.c **** 	{
  57:../src/NVICprogram.c **** 		NVIC_ICER0 = (1 << Copy_u8IntNumber ); // faster than SET_BIT as it use OR
  58:../src/NVICprogram.c **** 	}
  59:../src/NVICprogram.c **** 	
  60:../src/NVICprogram.c **** 	else if(Copy_u8IntNumber<=59)
 147              		.loc 1 60 0
 148 0004 3B28     		cmp	r0, #59
 149 0006 06D8     		bhi	.L12
  61:../src/NVICprogram.c **** 	{
  62:../src/NVICprogram.c **** 		Copy_u8IntNumber -= 32;
 150              		.loc 1 62 0
 151 0008 2038     		subs	r0, r0, #32
 152              	.LVL9:
 153 000a C0B2     		uxtb	r0, r0
 154              	.LVL10:
  63:../src/NVICprogram.c **** 		NVIC_ICER1 = (1 << Copy_u8IntNumber ); // faster than SET_BIT as it use OR
 155              		.loc 1 63 0
 156 000c 0123     		movs	r3, #1
 157 000e 03FA00F0 		lsl	r0, r3, r0
 158              	.LVL11:
 159 0012 044B     		ldr	r3, .L16
 160 0014 1860     		str	r0, [r3]
 161              	.L12:
  64:../src/NVICprogram.c **** 	}
  65:../src/NVICprogram.c **** 	
  66:../src/NVICprogram.c **** 	else
  67:../src/NVICprogram.c **** 	{
  68:../src/NVICprogram.c **** 		/*Return error*/
  69:../src/NVICprogram.c **** 	}
  70:../src/NVICprogram.c **** }
 162              		.loc 1 70 0
 163 0016 7047     		bx	lr
 164              	.LVL12:
 165              	.L15:
  57:../src/NVICprogram.c **** 	}
 166              		.loc 1 57 0
 167 0018 0123     		movs	r3, #1
 168 001a 03FA00F0 		lsl	r0, r3, r0
 169              	.LVL13:
 170 001e 024B     		ldr	r3, .L16+4
 171 0020 1860     		str	r0, [r3]
 172 0022 7047     		bx	lr
 173              	.L17:
 174              		.align	2
 175              	.L16:
 176 0024 84E100E0 		.word	-536813180
 177 0028 80E100E0 		.word	-536813184
 178              		.cfi_endproc
 179              	.LFE3:
 181              		.section	.text.MNVIC_VoidSetPendingFlag,"ax",%progbits
 182              		.align	1
 183              		.global	MNVIC_VoidSetPendingFlag
 184              		.syntax unified
 185              		.thumb
 186              		.thumb_func
 187              		.fpu softvfp
 189              	MNVIC_VoidSetPendingFlag:
 190              	.LFB4:
  71:../src/NVICprogram.c **** 
  72:../src/NVICprogram.c **** 
  73:../src/NVICprogram.c **** void MNVIC_VoidSetPendingFlag(u8 Copy_u8IntNumber)
  74:../src/NVICprogram.c **** {
 191              		.loc 1 74 0
 192              		.cfi_startproc
 193              		@ args = 0, pretend = 0, frame = 0
 194              		@ frame_needed = 0, uses_anonymous_args = 0
 195              		@ link register save eliminated.
 196              	.LVL14:
  75:../src/NVICprogram.c **** 	if(Copy_u8IntNumber<=31)
 197              		.loc 1 75 0
 198 0000 1F28     		cmp	r0, #31
 199 0002 09D9     		bls	.L21
  76:../src/NVICprogram.c **** 	{
  77:../src/NVICprogram.c **** 		NVIC_ISPR0 = (1 << Copy_u8IntNumber ); // faster than SET_BIT as it use OR
  78:../src/NVICprogram.c **** 	}
  79:../src/NVICprogram.c **** 	
  80:../src/NVICprogram.c **** 	else if(Copy_u8IntNumber<=59)
 200              		.loc 1 80 0
 201 0004 3B28     		cmp	r0, #59
 202 0006 06D8     		bhi	.L18
  81:../src/NVICprogram.c **** 	{
  82:../src/NVICprogram.c **** 		Copy_u8IntNumber -= 32;
 203              		.loc 1 82 0
 204 0008 2038     		subs	r0, r0, #32
 205              	.LVL15:
 206 000a C0B2     		uxtb	r0, r0
 207              	.LVL16:
  83:../src/NVICprogram.c **** 		NVIC_ISPR1 = (1 << Copy_u8IntNumber ); // faster than SET_BIT as it use OR
 208              		.loc 1 83 0
 209 000c 0123     		movs	r3, #1
 210 000e 03FA00F0 		lsl	r0, r3, r0
 211              	.LVL17:
 212 0012 044B     		ldr	r3, .L22
 213 0014 1860     		str	r0, [r3]
 214              	.L18:
  84:../src/NVICprogram.c **** 	}
  85:../src/NVICprogram.c **** 	
  86:../src/NVICprogram.c **** 	else
  87:../src/NVICprogram.c **** 	{
  88:../src/NVICprogram.c **** 		/*Return error*/
  89:../src/NVICprogram.c **** 	}
  90:../src/NVICprogram.c **** }
 215              		.loc 1 90 0
 216 0016 7047     		bx	lr
 217              	.LVL18:
 218              	.L21:
  77:../src/NVICprogram.c **** 	}
 219              		.loc 1 77 0
 220 0018 0123     		movs	r3, #1
 221 001a 03FA00F0 		lsl	r0, r3, r0
 222              	.LVL19:
 223 001e 024B     		ldr	r3, .L22+4
 224 0020 1860     		str	r0, [r3]
 225 0022 7047     		bx	lr
 226              	.L23:
 227              		.align	2
 228              	.L22:
 229 0024 04E200E0 		.word	-536813052
 230 0028 00E200E0 		.word	-536813056
 231              		.cfi_endproc
 232              	.LFE4:
 234              		.section	.text.MNVIC_VoidClearPendingFlag,"ax",%progbits
 235              		.align	1
 236              		.global	MNVIC_VoidClearPendingFlag
 237              		.syntax unified
 238              		.thumb
 239              		.thumb_func
 240              		.fpu softvfp
 242              	MNVIC_VoidClearPendingFlag:
 243              	.LFB5:
  91:../src/NVICprogram.c **** 
  92:../src/NVICprogram.c **** void MNVIC_VoidClearPendingFlag(u8 Copy_u8IntNumber)
  93:../src/NVICprogram.c **** {
 244              		.loc 1 93 0
 245              		.cfi_startproc
 246              		@ args = 0, pretend = 0, frame = 0
 247              		@ frame_needed = 0, uses_anonymous_args = 0
 248              		@ link register save eliminated.
 249              	.LVL20:
  94:../src/NVICprogram.c **** 	if(Copy_u8IntNumber<=31)
 250              		.loc 1 94 0
 251 0000 1F28     		cmp	r0, #31
 252 0002 09D9     		bls	.L27
  95:../src/NVICprogram.c **** 	{
  96:../src/NVICprogram.c **** 		NVIC_ICPR0 = (1 << Copy_u8IntNumber ); // faster than SET_BIT as it use OR
  97:../src/NVICprogram.c **** 	}
  98:../src/NVICprogram.c **** 	
  99:../src/NVICprogram.c **** 	else if(Copy_u8IntNumber<=59)
 253              		.loc 1 99 0
 254 0004 3B28     		cmp	r0, #59
 255 0006 06D8     		bhi	.L24
 100:../src/NVICprogram.c **** 	{
 101:../src/NVICprogram.c **** 		Copy_u8IntNumber -= 32;
 256              		.loc 1 101 0
 257 0008 2038     		subs	r0, r0, #32
 258              	.LVL21:
 259 000a C0B2     		uxtb	r0, r0
 260              	.LVL22:
 102:../src/NVICprogram.c **** 		NVIC_ICPR1 = (1 << Copy_u8IntNumber ); // faster than SET_BIT as it use OR
 261              		.loc 1 102 0
 262 000c 0123     		movs	r3, #1
 263 000e 03FA00F0 		lsl	r0, r3, r0
 264              	.LVL23:
 265 0012 044B     		ldr	r3, .L28
 266 0014 1860     		str	r0, [r3]
 267              	.L24:
 103:../src/NVICprogram.c **** 	}
 104:../src/NVICprogram.c **** 	
 105:../src/NVICprogram.c **** 	else
 106:../src/NVICprogram.c **** 	{
 107:../src/NVICprogram.c **** 		/*Return error*/
 108:../src/NVICprogram.c **** 	}
 109:../src/NVICprogram.c **** }
 268              		.loc 1 109 0
 269 0016 7047     		bx	lr
 270              	.LVL24:
 271              	.L27:
  96:../src/NVICprogram.c **** 	}
 272              		.loc 1 96 0
 273 0018 0123     		movs	r3, #1
 274 001a 03FA00F0 		lsl	r0, r3, r0
 275              	.LVL25:
 276 001e 024B     		ldr	r3, .L28+4
 277 0020 1860     		str	r0, [r3]
 278 0022 7047     		bx	lr
 279              	.L29:
 280              		.align	2
 281              	.L28:
 282 0024 84E200E0 		.word	-536812924
 283 0028 80E200E0 		.word	-536812928
 284              		.cfi_endproc
 285              	.LFE5:
 287              		.section	.text.MNVIC_U8GetActiveFlag,"ax",%progbits
 288              		.align	1
 289              		.global	MNVIC_U8GetActiveFlag
 290              		.syntax unified
 291              		.thumb
 292              		.thumb_func
 293              		.fpu softvfp
 295              	MNVIC_U8GetActiveFlag:
 296              	.LFB6:
 110:../src/NVICprogram.c **** 
 111:../src/NVICprogram.c **** 
 112:../src/NVICprogram.c **** u8 MNVIC_U8GetActiveFlag(u8 Copy_u8IntNumber)
 113:../src/NVICprogram.c **** {
 297              		.loc 1 113 0
 298              		.cfi_startproc
 299              		@ args = 0, pretend = 0, frame = 0
 300              		@ frame_needed = 0, uses_anonymous_args = 0
 301              		@ link register save eliminated.
 302              	.LVL26:
 114:../src/NVICprogram.c **** 	u8 LocalResult=0;
 115:../src/NVICprogram.c **** 	
 116:../src/NVICprogram.c **** 	if(Copy_u8IntNumber<=31)
 303              		.loc 1 116 0
 304 0000 1F28     		cmp	r0, #31
 305 0002 09D9     		bls	.L34
 117:../src/NVICprogram.c **** 	{
 118:../src/NVICprogram.c **** 		LocalResult = GET_BIT(NVIC_IABR0,Copy_u8IntNumber);
 119:../src/NVICprogram.c **** 	}
 120:../src/NVICprogram.c **** 	
 121:../src/NVICprogram.c **** 	else if(Copy_u8IntNumber<=59)
 306              		.loc 1 121 0
 307 0004 3B28     		cmp	r0, #59
 308 0006 0ED8     		bhi	.L33
 122:../src/NVICprogram.c **** 	{
 123:../src/NVICprogram.c **** 		Copy_u8IntNumber -= 32;
 309              		.loc 1 123 0
 310 0008 2038     		subs	r0, r0, #32
 311              	.LVL27:
 312 000a C3B2     		uxtb	r3, r0
 313              	.LVL28:
 124:../src/NVICprogram.c **** 		LocalResult = GET_BIT(NVIC_IABR1,Copy_u8IntNumber);
 314              		.loc 1 124 0
 315 000c 074A     		ldr	r2, .L35
 316 000e 1068     		ldr	r0, [r2]
 317 0010 D840     		lsrs	r0, r0, r3
 318 0012 00F00100 		and	r0, r0, #1
 319              	.LVL29:
 320 0016 7047     		bx	lr
 321              	.LVL30:
 322              	.L34:
 118:../src/NVICprogram.c **** 	}
 323              		.loc 1 118 0
 324 0018 054B     		ldr	r3, .L35+4
 325 001a 1B68     		ldr	r3, [r3]
 326 001c 23FA00F0 		lsr	r0, r3, r0
 327              	.LVL31:
 328 0020 00F00100 		and	r0, r0, #1
 329              	.LVL32:
 330 0024 7047     		bx	lr
 331              	.LVL33:
 332              	.L33:
 114:../src/NVICprogram.c **** 	
 333              		.loc 1 114 0
 334 0026 0020     		movs	r0, #0
 335              	.LVL34:
 125:../src/NVICprogram.c **** 	}
 126:../src/NVICprogram.c **** 	
 127:../src/NVICprogram.c **** 	else
 128:../src/NVICprogram.c **** 	{
 129:../src/NVICprogram.c **** 		/*Return error*/
 130:../src/NVICprogram.c **** 	}
 131:../src/NVICprogram.c **** 	return LocalResult;
 132:../src/NVICprogram.c **** }
 336              		.loc 1 132 0
 337 0028 7047     		bx	lr
 338              	.L36:
 339 002a 00BF     		.align	2
 340              	.L35:
 341 002c 04E300E0 		.word	-536812796
 342 0030 00E300E0 		.word	-536812800
 343              		.cfi_endproc
 344              	.LFE6:
 346              		.text
 347              	.Letext0:
 348              		.file 2 "../include/STD_TYPES.h"